target datalayout = "e-m:e-p270:32:32-p271:32:32-p272:64:64-i64:64-i128:128-f80:128-n8:16:32:64-S128"
target triple = "x86_64-pc-linux-gnu"

%struct.UDataMemory = type { ptr, ptr, ptr, i8, ptr, ptr, i32 }
%struct.UDataOffsetTOC = type { i32, [1 x %struct.UDataOffsetTOCEntry] }
%struct.UDataOffsetTOCEntry = type { i32, i32 }

; Function Attrs: mustprogress nounwind uwtable
define internal noundef i32 @_ZL19offsetTOCEntryCountPK11UDataMemory(ptr noundef %0) #0 {
  %2 = alloca ptr, align 8
  %3 = alloca i32, align 4
  %4 = alloca ptr, align 8
  store ptr %0, ptr %2, align 8, !tbaa !16
  call void @llvm.lifetime.start.p0(i64 4, ptr %3) #5
  store i32 0, ptr %3, align 4, !tbaa !35
  call void @llvm.lifetime.start.p0(i64 8, ptr %4) #5
  %5 = load ptr, ptr %2, align 8, !tbaa !16
  %6 = getelementptr inbounds nuw %struct.UDataMemory, ptr %5, i32 0, i32 2
  %7 = load ptr, ptr %6, align 8, !tbaa !28
  store ptr %7, ptr %4, align 8, !tbaa !3
  %8 = load ptr, ptr %4, align 8, !tbaa !3
  %9 = icmp ne ptr %8, null
  br i1 %9, label %10, label %14

10:                                               ; preds = %1
  %11 = load ptr, ptr %4, align 8, !tbaa !3
  %12 = getelementptr inbounds nuw %struct.UDataOffsetTOC, ptr %11, i32 0, i32 0
  %13 = load i32, ptr %12, align 4, !tbaa !33
  store i32 %13, ptr %3, align 4, !tbaa !35
  br label %14

14:                                               ; preds = %10, %1
  %15 = load i32, ptr %3, align 4, !tbaa !35
  call void @llvm.lifetime.end.p0(i64 8, ptr %4) #5
  call void @llvm.lifetime.end.p0(i64 4, ptr %3) #5
  ret i32 %15
}