; Function Attrs: mustprogress nofree norecurse nosync nounwind willreturn memory(read, inaccessiblemem: none) uwtable
define internal noundef i32 @_ZL19offsetTOCEntryCountPK11UDataMemory(ptr noundef readonly captures(none) %0) #4 {
  %2 = getelementptr inbounds nuw i8, ptr %0, i64 16
  %3 = load ptr, ptr %2, align 8, !tbaa !24
  %.not = icmp eq ptr %3, null
  br i1 %.not, label %6, label %4

4:                                                ; preds = %1
  %5 = load i32, ptr %3, align 4, !tbaa !25
  br label %6

6:                                                ; preds = %4, %1
  %.0 = phi i32 [ %5, %4 ], [ 0, %1 ]
  ret i32 %.0
}